target datalayout = "e-m:e-p270:32:32-p271:32:32-p272:64:64-i64:64-i128:128-f80:128-n8:16:32:64-S128"
target triple = "x86_64-pc-linux-gnu"

%struct.sh_st = type { ptr, i64, ptr, i64, ptr, i64, i64, ptr, ptr, i64 }

@secure_mem_initialized = internal global i32 0, align 4
@sec_malloc_lock = internal global ptr null, align 8
@secure_mem_used = internal global i64 0, align 8
@sh = internal global %struct.sh_st zeroinitializer, align 8

; Function Attrs: nounwind uwtable
define internal i32 @sh_allocated(ptr noundef %0) #0 {
  %2 = alloca ptr, align 8
  store ptr %0, ptr %2, align 8, !tbaa !26
  %3 = load ptr, ptr %2, align 8, !tbaa !26
  %4 = load ptr, ptr getelementptr inbounds nuw (%struct.sh_st, ptr @sh, i32 0, i32 2), align 8, !tbaa !25
  %5 = icmp uge ptr %3, %4
  br i1 %5, label %6, label %12

6:                                                ; preds = %1
  %7 = load ptr, ptr %2, align 8, !tbaa !26
  %8 = load ptr, ptr getelementptr inbounds nuw (%struct.sh_st, ptr @sh, i32 0, i32 2), align 8, !tbaa !25
  %9 = load i64, ptr getelementptr inbounds nuw (%struct.sh_st, ptr @sh, i32 0, i32 3), align 8, !tbaa !11
  %10 = getelementptr inbounds nuw i8, ptr %8, i64 %9
  %11 = icmp ult ptr %7, %10
  br label %12

12:                                               ; preds = %6, %1
  %13 = phi i1 [ false, %1 ], [ %11, %6 ]
  %14 = select i1 %13, i32 1, i32 0
  ret i32 %14
}

; Function Attrs: nounwind uwtable
define i32 @CRYPTO_secure_allocated(ptr noundef %0) #0 {
  %2 = alloca i32, align 4
  %3 = alloca ptr, align 8
  store ptr %0, ptr %3, align 8, !tbaa !9
  %4 = load i32, ptr @secure_mem_initialized, align 4, !tbaa !7
  %5 = icmp ne i32 %4, 0
  br i1 %5, label %7, label %6

6:                                                ; preds = %1
  store i32 0, ptr %2, align 4
  br label %10

7:                                                ; preds = %1
  %8 = load ptr, ptr %3, align 8, !tbaa !9
  %9 = call i32 @sh_allocated(ptr noundef %8)
  store i32 %9, ptr %2, align 4
  br label %10

10:                                               ; preds = %7, %6
  %11 = load i32, ptr %2, align 4
  ret i32 %11
}

; Function Attrs: nounwind uwtable
define void @CRYPTO_secure_free(ptr noundef %0, ptr noundef %1, i32 noundef %2) #0 {
  %4 = alloca ptr, align 8
  %5 = alloca ptr, align 8
  %6 = alloca i32, align 4
  %7 = alloca i64, align 8
  %8 = alloca i32, align 4
  store ptr %0, ptr %4, align 8, !tbaa !9
  store ptr %1, ptr %5, align 8, !tbaa !26
  store i32 %2, ptr %6, align 4, !tbaa !7
  call void @llvm.lifetime.start.p0(i64 8, ptr %7) #7
  %9 = load ptr, ptr %4, align 8, !tbaa !9
  %10 = icmp eq ptr %9, null
  br i1 %10, label %11, label %12

11:                                               ; preds = %3
  store i32 1, ptr %8, align 4
  br label %36

12:                                               ; preds = %3
  %13 = load ptr, ptr %4, align 8, !tbaa !9
  %14 = call i32 @CRYPTO_secure_allocated(ptr noundef %13)
  %15 = icmp ne i32 %14, 0
  br i1 %15, label %20, label %16

16:                                               ; preds = %12
  %17 = load ptr, ptr %4, align 8, !tbaa !9
  %18 = load ptr, ptr %5, align 8, !tbaa !26
  %19 = load i32, ptr %6, align 4, !tbaa !7
  call void @CRYPTO_free(ptr noundef %17, ptr noundef %18, i32 noundef %19)
  store i32 1, ptr %8, align 4
  br label %36

20:                                               ; preds = %12
  %21 = load ptr, ptr @sec_malloc_lock, align 8, !tbaa !9
  %22 = call i32 @CRYPTO_THREAD_write_lock(ptr noundef %21)
  %23 = icmp ne i32 %22, 0
  br i1 %23, label %25, label %24

24:                                               ; preds = %20
  store i32 1, ptr %8, align 4
  br label %36

25:                                               ; preds = %20
  %26 = load ptr, ptr %4, align 8, !tbaa !9
  %27 = call i64 @sh_actual_size(ptr noundef %26)
  store i64 %27, ptr %7, align 8, !tbaa !3
  %28 = load ptr, ptr %4, align 8, !tbaa !9
  %29 = load i64, ptr %7, align 8, !tbaa !3
  call void @OPENSSL_cleanse(ptr noundef %28, i64 noundef %29)
  %30 = load i64, ptr %7, align 8, !tbaa !3
  %31 = load i64, ptr @secure_mem_used, align 8, !tbaa !3
  %32 = sub i64 %31, %30
  store i64 %32, ptr @secure_mem_used, align 8, !tbaa !3
  %33 = load ptr, ptr %4, align 8, !tbaa !9
  call void @sh_free(ptr noundef %33)
  %34 = load ptr, ptr @sec_malloc_lock, align 8, !tbaa !9
  %35 = call i32 @CRYPTO_THREAD_unlock(ptr noundef %34)
  store i32 0, ptr %8, align 4
  br label %36

36:                                               ; preds = %25, %24, %16, %11
  call void @llvm.lifetime.end.p0(i64 8, ptr %7) #7
  %37 = load i32, ptr %8, align 4
  switch i32 %37, label %39 [
    i32 0, label %38
    i32 1, label %38
  ]

38:                                               ; preds = %36, %36
  ret void

39:                                               ; preds = %36
  unreachable
}