; Function Attrs: nounwind uwtable
define void @CRYPTO_secure_free(ptr noundef %0, ptr noundef %1, i32 noundef %2) local_unnamed_addr #0 {
  %4 = icmp eq ptr %0, null
  br i1 %4, label %20, label %5

5:                                                ; preds = %3
  %.b.i = load i1, ptr @secure_mem_initialized, align 4
  br i1 %.b.i, label %CRYPTO_secure_allocated.exit, label %CRYPTO_secure_allocated.exit.thread

CRYPTO_secure_allocated.exit:                     ; preds = %5
  %6 = load ptr, ptr getelementptr inbounds nuw (i8, ptr @sh, i64 16), align 8, !tbaa !22
  %7 = icmp ult ptr %0, %6
  %8 = load i64, ptr getelementptr inbounds nuw (i8, ptr @sh, i64 24), align 8
  %9 = getelementptr inbounds nuw i8, ptr %6, i64 %8
  %10 = icmp uge ptr %0, %9
  %.not14 = select i1 %7, i1 true, i1 %10
  br i1 %.not14, label %CRYPTO_secure_allocated.exit.thread, label %11

CRYPTO_secure_allocated.exit.thread:              ; preds = %5, %CRYPTO_secure_allocated.exit
  tail call void @CRYPTO_free(ptr noundef nonnull %0, ptr noundef %1, i32 noundef %2) #8
  br label %20

11:                                               ; preds = %CRYPTO_secure_allocated.exit
  %12 = load ptr, ptr @sec_malloc_lock, align 8, !tbaa !3
  %13 = tail call i32 @CRYPTO_THREAD_write_lock(ptr noundef %12) #8
  %.not9 = icmp eq i32 %13, 0
  br i1 %.not9, label %20, label %14

14:                                               ; preds = %11
  %15 = tail call fastcc i64 @sh_actual_size(ptr noundef nonnull %0)
  tail call void @OPENSSL_cleanse(ptr noundef nonnull %0, i64 noundef %15) #8
  %16 = load i64, ptr @secure_mem_used, align 8, !tbaa !25
  %17 = sub i64 %16, %15
  store i64 %17, ptr @secure_mem_used, align 8, !tbaa !25
  tail call fastcc void @sh_free(ptr noundef %0)
  %18 = load ptr, ptr @sec_malloc_lock, align 8, !tbaa !3
  %19 = tail call i32 @CRYPTO_THREAD_unlock(ptr noundef %18) #8
  br label %20

20:                                               ; preds = %11, %3, %14, %CRYPTO_secure_allocated.exit.thread
  ret void
}